target datalayout = "e-m:e-p270:32:32-p271:32:32-p272:64:64-i64:64-i128:128-f80:128-n8:16:32:64-S128"
target triple = "x86_64-pc-linux-gnu"

%struct.evp_test_st = type { %struct.stanza_st, ptr, i32, ptr, ptr, ptr, ptr, ptr, ptr, i32 }
%struct.stanza_st = type { ptr, ptr, i32, i32, i32, i32, i32, i32, [150 x %struct.pair_st], ptr, [32768 x i8] }
%struct.pair_st = type { ptr, ptr }
%struct.kem_data_st = type { ptr, ptr, ptr, i64, ptr, i64, ptr, ptr, ptr, ptr, i64, ptr, i64, ptr, i64, ptr, i64 }

@.str.29 = private unnamed_addr constant [27 x i8] c"../openssl/test/evp_test.c\00", align 1
@.str.288 = private unnamed_addr constant [39 x i8] c"kdata = OPENSSL_zalloc(sizeof(*kdata))\00", align 1
@.str.458 = private unnamed_addr constant [37 x i8] c"kdata->algname = OPENSSL_strdup(alg)\00", align 1

; Function Attrs: nounwind uwtable
define internal i32 @kem_test_init(ptr noundef %0, ptr noundef %1) #0 {
  %3 = alloca i32, align 4
  %4 = alloca ptr, align 8
  %5 = alloca ptr, align 8
  %6 = alloca ptr, align 8
  %7 = alloca ptr, align 8
  %8 = alloca i32, align 4
  store ptr %0, ptr %4, align 8, !tbaa !15
  store ptr %1, ptr %5, align 8, !tbaa !4
  call void @llvm.lifetime.start.p0(i64 8, ptr %6) #10
  store ptr null, ptr %6, align 8, !tbaa !364
  call void @llvm.lifetime.start.p0(i64 8, ptr %7) #10
  store ptr null, ptr %7, align 8, !tbaa !41
  %9 = call noalias ptr @CRYPTO_zalloc(i64 noundef 136, ptr noundef @.str.29, i32 noundef 2157)
  store ptr %9, ptr %6, align 8, !tbaa !364
  %10 = call i32 @test_ptr(ptr noundef @.str.29, i32 noundef 2157, ptr noundef @.str.288, ptr noundef %9)
  %11 = icmp ne i32 %10, 0
  br i1 %11, label %12, label %19

12:                                               ; preds = %2
  %13 = load ptr, ptr %5, align 8, !tbaa !4
  %14 = call noalias ptr @CRYPTO_strdup(ptr noundef %13, ptr noundef @.str.29, i32 noundef 2158)
  %15 = load ptr, ptr %6, align 8, !tbaa !364
  %16 = getelementptr inbounds nuw %struct.kem_data_st, ptr %15, i32 0, i32 7
  store ptr %14, ptr %16, align 8, !tbaa !366
  %17 = call i32 @test_ptr(ptr noundef @.str.29, i32 noundef 2158, ptr noundef @.str.458, ptr noundef %14)
  %18 = icmp ne i32 %17, 0
  br i1 %18, label %20, label %19

19:                                               ; preds = %12, %2
  br label %27

20:                                               ; preds = %12
  %21 = call ptr @OPENSSL_sk_new_null()
  %22 = load ptr, ptr %6, align 8, !tbaa !364
  %23 = getelementptr inbounds nuw %struct.kem_data_st, ptr %22, i32 0, i32 6
  store ptr %21, ptr %23, align 8, !tbaa !368
  %24 = load ptr, ptr %6, align 8, !tbaa !364
  %25 = load ptr, ptr %4, align 8, !tbaa !15
  %26 = getelementptr inbounds nuw %struct.evp_test_st, ptr %25, i32 0, i32 8
  store ptr %24, ptr %26, align 8, !tbaa !66
  store i32 1, ptr %3, align 4
  store i32 1, ptr %8, align 4
  br label %30

27:                                               ; preds = %19
  %28 = load ptr, ptr %7, align 8, !tbaa !41
  call void @EVP_PKEY_free(ptr noundef %28)
  %29 = load ptr, ptr %6, align 8, !tbaa !364
  call void @CRYPTO_free(ptr noundef %29, ptr noundef @.str.29, i32 noundef 2166)
  store i32 0, ptr %3, align 4
  store i32 1, ptr %8, align 4
  br label %30

30:                                               ; preds = %27, %20
  call void @llvm.lifetime.end.p0(i64 8, ptr %7) #10
  call void @llvm.lifetime.end.p0(i64 8, ptr %6) #10
  %31 = load i32, ptr %3, align 4
  ret i32 %31
}