; Function Attrs: nounwind uwtable
define internal range(i32 0, 2) i32 @kem_test_init(ptr noundef writeonly captures(none) %0, ptr noundef %1) #1 {
  %3 = tail call noalias ptr @CRYPTO_zalloc(i64 noundef 136, ptr noundef nonnull @.str.29, i32 noundef 2157) #10
  %4 = tail call i32 @test_ptr(ptr noundef nonnull @.str.29, i32 noundef 2157, ptr noundef nonnull @.str.288, ptr noundef %3) #10
  %.not = icmp eq i32 %4, 0
  br i1 %.not, label %13, label %5

5:                                                ; preds = %2
  %6 = tail call noalias ptr @CRYPTO_strdup(ptr noundef %1, ptr noundef nonnull @.str.29, i32 noundef 2158) #10
  %7 = getelementptr inbounds nuw i8, ptr %3, i64 56
  store ptr %6, ptr %7, align 8, !tbaa !300
  %8 = tail call i32 @test_ptr(ptr noundef nonnull @.str.29, i32 noundef 2158, ptr noundef nonnull @.str.458, ptr noundef %6) #10
  %.not7 = icmp eq i32 %8, 0
  br i1 %.not7, label %13, label %9

9:                                                ; preds = %5
  %10 = tail call ptr @OPENSSL_sk_new_null() #10
  %11 = getelementptr inbounds nuw i8, ptr %3, i64 48
  store ptr %10, ptr %11, align 8, !tbaa !302
  %12 = getelementptr inbounds nuw i8, ptr %0, i64 35272
  store ptr %3, ptr %12, align 8, !tbaa !20
  br label %14

13:                                               ; preds = %2, %5
  tail call void @EVP_PKEY_free(ptr noundef null) #10
  tail call void @CRYPTO_free(ptr noundef %3, ptr noundef nonnull @.str.29, i32 noundef 2166) #10
  br label %14

14:                                               ; preds = %13, %9
  %.0 = phi i32 [ 1, %9 ], [ 0, %13 ]
  ret i32 %.0
}